target datalayout = "e-m:e-p270:32:32-p271:32:32-p272:64:64-i64:64-i128:128-f80:128-n8:16:32:64-S128"
target triple = "x86_64-pc-linux-gnu"

%struct.portalhashent = type { [64 x i8], ptr }
%struct.PortalData = type { ptr, ptr, ptr, ptr, ptr, i32, i32, i32, ptr, i32, %struct.QueryCompletion, ptr, ptr, ptr, ptr, i32, i32, i32, i8, i8, ptr, ptr, ptr, ptr, ptr, ptr, ptr, i8, i8, i64, i64, i8 }
%struct.QueryCompletion = type { i32, i64 }
%struct.HASH_SEQ_STATUS = type { ptr, i32, ptr, i8, i32 }
%struct.FunctionCallInfoBaseData = type { ptr, ptr, ptr, i32, i8, i16, [0 x %struct.NullableDatum] }
%struct.NullableDatum = type { i64, i8 }
%struct.ReturnSetInfo = type { i32, ptr, ptr, i32, i32, i32, ptr, ptr }

@PortalHashTable = internal global ptr null, align 8

; Function Attrs: inlinehint nounwind uwtable
define internal i64 @Int64GetDatum(i64 noundef %0) #5 {
  %2 = alloca i64, align 8
  store i64 %0, ptr %2, align 8
  %3 = load i64, ptr %2, align 8
  ret i64 %3
}

; Function Attrs: inlinehint nounwind uwtable
define internal i64 @TimestampTzGetDatum(i64 noundef %0) #5 {
  %2 = alloca i64, align 8
  store i64 %0, ptr %2, align 8
  %3 = load i64, ptr %2, align 8
  %4 = call i64 @Int64GetDatum(i64 noundef %3)
  ret i64 %4
}

; Function Attrs: inlinehint nounwind uwtable
define internal i64 @BoolGetDatum(i1 noundef zeroext %0) #5 {
  %2 = alloca i8, align 1
  %3 = zext i1 %0 to i8
  store i8 %3, ptr %2, align 1
  %4 = load i8, ptr %2, align 1, !range !4, !noundef !5
  %5 = trunc i8 %4 to i1
  %6 = select i1 %5, i32 1, i32 0
  %7 = sext i32 %6 to i64
  ret i64 %7
}

; Function Attrs: inlinehint nounwind uwtable
define internal i64 @PointerGetDatum(ptr noundef %0) #5 {
  %2 = alloca ptr, align 8
  store ptr %0, ptr %2, align 8
  %3 = load ptr, ptr %2, align 8
  %4 = ptrtoint ptr %3 to i64
  ret i64 %4
}

; Function Attrs: nounwind uwtable
define dso_local i64 @pg_cursor(ptr noundef %0) #0 {
  %2 = alloca ptr, align 8
  %3 = alloca ptr, align 8
  %4 = alloca %struct.HASH_SEQ_STATUS, align 8
  %5 = alloca ptr, align 8
  %6 = alloca ptr, align 8
  %7 = alloca [6 x i64], align 16
  %8 = alloca [6 x i8], align 1
  %9 = alloca i32, align 4
  store ptr %0, ptr %2, align 8
  call void @llvm.lifetime.start.p0(i64 8, ptr %3) #6
  %10 = load ptr, ptr %2, align 8
  %11 = getelementptr inbounds nuw %struct.FunctionCallInfoBaseData, ptr %10, i32 0, i32 2
  %12 = load ptr, ptr %11, align 8
  store ptr %12, ptr %3, align 8
  call void @llvm.lifetime.start.p0(i64 32, ptr %4) #6
  call void @llvm.lifetime.start.p0(i64 8, ptr %5) #6
  %13 = load ptr, ptr %2, align 8
  call void @InitMaterializedSRF(ptr noundef %13, i32 noundef 0)
  %14 = load ptr, ptr @PortalHashTable, align 8
  call void @hash_seq_init(ptr noundef %4, ptr noundef %14)
  br label %15

15:                                               ; preds = %82, %80, %1
  %16 = call ptr @hash_seq_search(ptr noundef %4)
  store ptr %16, ptr %5, align 8
  %17 = icmp ne ptr %16, null
  br i1 %17, label %18, label %83

18:                                               ; preds = %15
  call void @llvm.lifetime.start.p0(i64 8, ptr %6) #6
  %19 = load ptr, ptr %5, align 8
  %20 = getelementptr inbounds nuw %struct.portalhashent, ptr %19, i32 0, i32 1
  %21 = load ptr, ptr %20, align 8
  store ptr %21, ptr %6, align 8
  call void @llvm.lifetime.start.p0(i64 48, ptr %7) #6
  call void @llvm.lifetime.start.p0(i64 6, ptr %8) #6
  call void @llvm.memset.p0.i64(ptr align 1 %8, i8 0, i64 6, i1 false)
  %22 = load ptr, ptr %6, align 8
  %23 = getelementptr inbounds nuw %struct.PortalData, ptr %22, i32 0, i32 31
  %24 = load i8, ptr %23, align 8, !range !4, !noundef !5
  %25 = trunc i8 %24 to i1
  br i1 %25, label %27, label %26

26:                                               ; preds = %18
  store i32 2, ptr %9, align 4
  br label %80, !llvm.loop !16

27:                                               ; preds = %18
  %28 = load ptr, ptr %6, align 8
  %29 = getelementptr inbounds nuw %struct.PortalData, ptr %28, i32 0, i32 8
  %30 = load ptr, ptr %29, align 8
  %31 = icmp ne ptr %30, null
  br i1 %31, label %33, label %32

32:                                               ; preds = %27
  store i32 2, ptr %9, align 4
  br label %80, !llvm.loop !16

33:                                               ; preds = %27
  %34 = load ptr, ptr %6, align 8
  %35 = getelementptr inbounds nuw %struct.PortalData, ptr %34, i32 0, i32 0
  %36 = load ptr, ptr %35, align 8
  %37 = call ptr @cstring_to_text(ptr noundef %36)
  %38 = call i64 @PointerGetDatum(ptr noundef %37)
  %39 = getelementptr inbounds [6 x i64], ptr %7, i64 0, i64 0
  store i64 %38, ptr %39, align 16
  %40 = load ptr, ptr %6, align 8
  %41 = getelementptr inbounds nuw %struct.PortalData, ptr %40, i32 0, i32 8
  %42 = load ptr, ptr %41, align 8
  %43 = call ptr @cstring_to_text(ptr noundef %42)
  %44 = call i64 @PointerGetDatum(ptr noundef %43)
  %45 = getelementptr inbounds [6 x i64], ptr %7, i64 0, i64 1
  store i64 %44, ptr %45, align 8
  %46 = load ptr, ptr %6, align 8
  %47 = getelementptr inbounds nuw %struct.PortalData, ptr %46, i32 0, i32 16
  %48 = load i32, ptr %47, align 4
  %49 = and i32 %48, 32
  %50 = icmp ne i32 %49, 0
  %51 = call i64 @BoolGetDatum(i1 noundef zeroext %50)
  %52 = getelementptr inbounds [6 x i64], ptr %7, i64 0, i64 2
  store i64 %51, ptr %52, align 16
  %53 = load ptr, ptr %6, align 8
  %54 = getelementptr inbounds nuw %struct.PortalData, ptr %53, i32 0, i32 16
  %55 = load i32, ptr %54, align 4
  %56 = and i32 %55, 1
  %57 = icmp ne i32 %56, 0
  %58 = call i64 @BoolGetDatum(i1 noundef zeroext %57)
  %59 = getelementptr inbounds [6 x i64], ptr %7, i64 0, i64 3
  store i64 %58, ptr %59, align 8
  %60 = load ptr, ptr %6, align 8
  %61 = getelementptr inbounds nuw %struct.PortalData, ptr %60, i32 0, i32 16
  %62 = load i32, ptr %61, align 4
  %63 = and i32 %62, 2
  %64 = icmp ne i32 %63, 0
  %65 = call i64 @BoolGetDatum(i1 noundef zeroext %64)
  %66 = getelementptr inbounds [6 x i64], ptr %7, i64 0, i64 4
  store i64 %65, ptr %66, align 16
  %67 = load ptr, ptr %6, align 8
  %68 = getelementptr inbounds nuw %struct.PortalData, ptr %67, i32 0, i32 30
  %69 = load i64, ptr %68, align 8
  %70 = call i64 @TimestampTzGetDatum(i64 noundef %69)
  %71 = getelementptr inbounds [6 x i64], ptr %7, i64 0, i64 5
  store i64 %70, ptr %71, align 8
  %72 = load ptr, ptr %3, align 8
  %73 = getelementptr inbounds nuw %struct.ReturnSetInfo, ptr %72, i32 0, i32 6
  %74 = load ptr, ptr %73, align 8
  %75 = load ptr, ptr %3, align 8
  %76 = getelementptr inbounds nuw %struct.ReturnSetInfo, ptr %75, i32 0, i32 7
  %77 = load ptr, ptr %76, align 8
  %78 = getelementptr inbounds [6 x i64], ptr %7, i64 0, i64 0
  %79 = getelementptr inbounds [6 x i8], ptr %8, i64 0, i64 0
  call void @tuplestore_putvalues(ptr noundef %74, ptr noundef %77, ptr noundef %78, ptr noundef %79)
  store i32 0, ptr %9, align 4
  br label %80

80:                                               ; preds = %33, %32, %26
  call void @llvm.lifetime.end.p0(i64 6, ptr %8) #6
  call void @llvm.lifetime.end.p0(i64 48, ptr %7) #6
  call void @llvm.lifetime.end.p0(i64 8, ptr %6) #6
  %81 = load i32, ptr %9, align 4
  switch i32 %81, label %84 [
    i32 0, label %82
    i32 2, label %15
  ]

82:                                               ; preds = %80
  br label %15, !llvm.loop !16

83:                                               ; preds = %15
  store i32 1, ptr %9, align 4
  call void @llvm.lifetime.end.p0(i64 8, ptr %5) #6
  call void @llvm.lifetime.end.p0(i64 32, ptr %4) #6
  call void @llvm.lifetime.end.p0(i64 8, ptr %3) #6
  ret i64 0

84:                                               ; preds = %80
  unreachable
}