; Function Attrs: nounwind uwtable
define dso_local noundef i64 @pg_cursor(ptr noundef %0) local_unnamed_addr #0 {
  %2 = alloca %struct.HASH_SEQ_STATUS, align 8
  %3 = alloca [6 x i64], align 16
  %4 = alloca [6 x i8], align 1
  %5 = getelementptr inbounds nuw i8, ptr %0, i64 16
  %6 = load ptr, ptr %5, align 8
  call void @llvm.lifetime.start.p0(i64 32, ptr nonnull %2) #8
  tail call void @InitMaterializedSRF(ptr noundef %0, i32 noundef 0) #8
  %7 = load ptr, ptr @PortalHashTable, align 8
  call void @hash_seq_init(ptr noundef nonnull %2, ptr noundef %7) #8
  %8 = call ptr @hash_seq_search(ptr noundef nonnull %2) #8
  %.not15 = icmp eq ptr %8, null
  br i1 %.not15, label %._crit_edge, label %.lr.ph

.lr.ph:                                           ; preds = %1
  %9 = getelementptr inbounds nuw i8, ptr %3, i64 8
  %10 = getelementptr inbounds nuw i8, ptr %3, i64 16
  %11 = getelementptr inbounds nuw i8, ptr %3, i64 24
  %12 = getelementptr inbounds nuw i8, ptr %3, i64 32
  %13 = getelementptr inbounds nuw i8, ptr %3, i64 40
  %14 = getelementptr inbounds nuw i8, ptr %6, i64 40
  %15 = getelementptr inbounds nuw i8, ptr %6, i64 48
  br label %16

16:                                               ; preds = %.lr.ph, %45
  %17 = phi ptr [ %8, %.lr.ph ], [ %46, %45 ]
  %18 = getelementptr inbounds nuw i8, ptr %17, i64 64
  %19 = load ptr, ptr %18, align 8
  call void @llvm.lifetime.start.p0(i64 48, ptr nonnull %3) #8
  call void @llvm.lifetime.start.p0(i64 6, ptr nonnull %4) #8
  call void @llvm.memset.p0.i64(ptr noundef nonnull align 1 dereferenceable(6) %4, i8 0, i64 6, i1 false)
  %20 = getelementptr inbounds nuw i8, ptr %19, i64 216
  %21 = load i8, ptr %20, align 8, !range !4, !noundef !5
  %22 = trunc nuw i8 %21 to i1
  br i1 %22, label %23, label %45, !llvm.loop !15

23:                                               ; preds = %16
  %24 = getelementptr inbounds nuw i8, ptr %19, i64 56
  %25 = load ptr, ptr %24, align 8
  %.not13 = icmp eq ptr %25, null
  br i1 %.not13, label %45, label %26, !llvm.loop !15

26:                                               ; preds = %23
  %27 = load ptr, ptr %19, align 8
  %28 = call ptr @cstring_to_text(ptr noundef %27) #8
  %29 = ptrtoint ptr %28 to i64
  store i64 %29, ptr %3, align 16
  %30 = load ptr, ptr %24, align 8
  %31 = call ptr @cstring_to_text(ptr noundef %30) #8
  %32 = ptrtoint ptr %31 to i64
  store i64 %32, ptr %9, align 8
  %33 = getelementptr inbounds nuw i8, ptr %19, i64 124
  %34 = load i32, ptr %33, align 4
  %35 = lshr i32 %34, 5
  %.lobit = and i32 %35, 1
  %36 = zext nneg i32 %.lobit to i64
  store i64 %36, ptr %10, align 16
  %37 = and i32 %34, 1
  %38 = zext nneg i32 %37 to i64
  store i64 %38, ptr %11, align 8
  %39 = lshr i32 %34, 1
  %.lobit14 = and i32 %39, 1
  %40 = zext nneg i32 %.lobit14 to i64
  store i64 %40, ptr %12, align 16
  %41 = getelementptr inbounds nuw i8, ptr %19, i64 208
  %42 = load i64, ptr %41, align 8
  store i64 %42, ptr %13, align 8
  %43 = load ptr, ptr %14, align 8
  %44 = load ptr, ptr %15, align 8
  call void @tuplestore_putvalues(ptr noundef %43, ptr noundef %44, ptr noundef nonnull %3, ptr noundef nonnull %4) #8
  br label %45

45:                                               ; preds = %23, %16, %26
  call void @llvm.lifetime.end.p0(i64 6, ptr nonnull %4) #8
  call void @llvm.lifetime.end.p0(i64 48, ptr nonnull %3) #8
  %46 = call ptr @hash_seq_search(ptr noundef nonnull %2) #8
  %.not = icmp eq ptr %46, null
  br i1 %.not, label %._crit_edge, label %16

._crit_edge:                                      ; preds = %45, %1
  call void @llvm.lifetime.end.p0(i64 32, ptr nonnull %2) #8
  ret i64 0
}